; Function Attrs: nounwind uwtable
define internal fastcc noundef zeroext i1 @StartBufferIO(ptr noundef %0, i1 noundef zeroext %1, i1 noundef zeroext %2) unnamed_addr #0 {
  %4 = alloca %struct.SpinDelayStatus, align 8
  %5 = load ptr, ptr @CurrentResourceOwner, align 8
  tail call void @ResourceOwnerEnlarge(ptr noundef %5) #16
  %6 = getelementptr inbounds nuw i8, ptr %4, i64 4
  %7 = getelementptr inbounds nuw i8, ptr %4, i64 8
  %8 = getelementptr inbounds nuw i8, ptr %4, i64 16
  %9 = getelementptr inbounds nuw i8, ptr %4, i64 24
  %10 = getelementptr inbounds nuw i8, ptr %4, i64 32
  %11 = getelementptr inbounds nuw i8, ptr %0, i64 24
  br i1 %2, label %.split.us, label %.split

.split.us:                                        ; preds = %3
  call void @llvm.lifetime.start.p0(i64 40, ptr nonnull %4) #16
  store i32 0, ptr %4, align 8
  store i32 0, ptr %6, align 4
  store i32 0, ptr %7, align 8
  store ptr @.str.3, ptr %8, align 8
  store i32 5707, ptr %9, align 8
  store ptr @__func__.LockBufHdr, ptr %10, align 8
  %12 = atomicrmw or ptr %11, i32 4194304 seq_cst, align 4
  %13 = and i32 %12, 4194304
  %.not2.i.us = icmp eq i32 %13, 0
  br i1 %.not2.i.us, label %LockBufHdr.exit.us, label %.lr.ph.i.us

.lr.ph.i.us:                                      ; preds = %.split.us, %.lr.ph.i.us
  call void @perform_spin_delay(ptr noundef nonnull %4) #16
  %14 = atomicrmw or ptr %11, i32 4194304 seq_cst, align 4
  %15 = and i32 %14, 4194304
  %.not.i.us = icmp eq i32 %15, 0
  br i1 %.not.i.us, label %LockBufHdr.exit.us, label %.lr.ph.i.us

LockBufHdr.exit.us:                               ; preds = %.lr.ph.i.us, %.split.us
  %.lcssa.i.us = phi i32 [ %12, %.split.us ], [ %14, %.lr.ph.i.us ]
  call void @finish_spin_delay(ptr noundef nonnull %4) #16
  call void @llvm.lifetime.end.p0(i64 40, ptr nonnull %4) #16
  %16 = and i32 %.lcssa.i.us, 67108864
  %.not.us = icmp eq i32 %16, 0
  br i1 %.not.us, label %.split21.us, label %.loopexit.split.us

.loopexit.split.us:                               ; preds = %LockBufHdr.exit.us
  call void asm sideeffect "", "~{memory},~{dirflag},~{fpsr},~{flags}"() #16, !srcloc !4
  %17 = and i32 %.lcssa.i.us, -4194305
  store volatile i32 %17, ptr %11, align 4
  br label %38

.split:                                           ; preds = %3, %23
  call void @llvm.lifetime.start.p0(i64 40, ptr nonnull %4) #16
  store i32 0, ptr %4, align 8
  store i32 0, ptr %6, align 4
  store i32 0, ptr %7, align 8
  store ptr @.str.3, ptr %8, align 8
  store i32 5707, ptr %9, align 8
  store ptr @__func__.LockBufHdr, ptr %10, align 8
  %18 = atomicrmw or ptr %11, i32 4194304 seq_cst, align 4
  %19 = and i32 %18, 4194304
  %.not2.i = icmp eq i32 %19, 0
  br i1 %.not2.i, label %LockBufHdr.exit, label %.lr.ph.i

.lr.ph.i:                                         ; preds = %.split, %.lr.ph.i
  call void @perform_spin_delay(ptr noundef nonnull %4) #16
  %20 = atomicrmw or ptr %11, i32 4194304 seq_cst, align 4
  %21 = and i32 %20, 4194304
  %.not.i = icmp eq i32 %21, 0
  br i1 %.not.i, label %LockBufHdr.exit, label %.lr.ph.i

LockBufHdr.exit:                                  ; preds = %.lr.ph.i, %.split
  %.lcssa.i = phi i32 [ %18, %.split ], [ %20, %.lr.ph.i ]
  call void @finish_spin_delay(ptr noundef nonnull %4) #16
  call void @llvm.lifetime.end.p0(i64 40, ptr nonnull %4) #16
  %22 = and i32 %.lcssa.i, 67108864
  %.not = icmp eq i32 %22, 0
  br i1 %.not, label %.split21.us, label %23

23:                                               ; preds = %LockBufHdr.exit
  call void asm sideeffect "", "~{memory},~{dirflag},~{fpsr},~{flags}"() #16, !srcloc !4
  %24 = and i32 %.lcssa.i, -4194305
  store volatile i32 %24, ptr %11, align 4
  call fastcc void @WaitIO(ptr noundef nonnull %0)
  br label %.split

.split21.us:                                      ; preds = %LockBufHdr.exit, %LockBufHdr.exit.us
  %.us-phi = phi i32 [ %.lcssa.i.us, %LockBufHdr.exit.us ], [ %.lcssa.i, %LockBufHdr.exit ]
  br i1 %1, label %25, label %27

25:                                               ; preds = %.split21.us
  %26 = and i32 %.us-phi, 16777216
  %.not16 = icmp eq i32 %26, 0
  br i1 %.not16, label %31, label %29

27:                                               ; preds = %.split21.us
  %28 = and i32 %.us-phi, 8388608
  %.not15 = icmp eq i32 %28, 0
  br i1 %.not15, label %29, label %31

29:                                               ; preds = %27, %25
  call void asm sideeffect "", "~{memory},~{dirflag},~{fpsr},~{flags}"() #16, !srcloc !4
  %30 = and i32 %.us-phi, -71303169
  store volatile i32 %30, ptr %11, align 4
  br label %38

31:                                               ; preds = %27, %25
  call void asm sideeffect "", "~{memory},~{dirflag},~{fpsr},~{flags}"() #16, !srcloc !4
  %32 = and i32 %.us-phi, -71303169
  %33 = or disjoint i32 %32, 67108864
  store volatile i32 %33, ptr %11, align 4
  %34 = load ptr, ptr @CurrentResourceOwner, align 8
  %35 = getelementptr i8, ptr %0, i64 20
  %.val = load i32, ptr %35, align 4
  %36 = add i32 %.val, 1
  %37 = sext i32 %36 to i64
  call void @ResourceOwnerRemember(ptr noundef %34, i64 noundef %37, ptr noundef nonnull @buffer_io_resowner_desc) #16
  br label %38

38:                                               ; preds = %.loopexit.split.us, %31, %29
  %.0 = phi i1 [ false, %29 ], [ true, %31 ], [ false, %.loopexit.split.us ]
  ret i1 %.0
}